; ModuleID = '52/1646.c'
source_filename = "52/1646.c"
target datalayout = "e-m:e-p270:32:32-p271:32:32-p272:64:64-i64:64-f80:128-n8:16:32:64-S128"
target triple = "x86_64-pc-linux-gnu"

@.str = private unnamed_addr constant [6 x i8] c"%d %d\00", align 1
@.str.1 = private unnamed_addr constant [3 x i8] c"%d\00", align 1
@.str.2 = private unnamed_addr constant [4 x i8] c"%d \00", align 1

; Function Attrs: noinline nounwind uwtable
define dso_local void @main() #0 {
  %1 = alloca [100 x i32], align 16
  %2 = alloca i32, align 4
  %3 = alloca i32, align 4
  %4 = alloca i32, align 4
  %5 = alloca i32, align 4
  %6 = alloca i32, align 4
  %7 = alloca i32*, align 8
  %8 = getelementptr inbounds [100 x i32], [100 x i32]* %1, i64 0, i64 0
  store i32* %8, i32** %7, align 8
  %9 = call i32 (i8*, ...) @__isoc99_scanf(i8* getelementptr inbounds ([6 x i8], [6 x i8]* @.str, i64 0, i64 0), i32* %2, i32* %3)
  store i32 0, i32* %5, align 4
  br label %10

10:                                               ; preds = %18, %0
  %11 = load i32, i32* %5, align 4
  %12 = load i32, i32* %2, align 4
  %13 = icmp slt i32 %11, %12
  br i1 %13, label %14, label %21

14:                                               ; preds = %10
  %15 = load i32*, i32** %7, align 8
  %16 = getelementptr inbounds i32, i32* %15, i32 1
  store i32* %16, i32** %7, align 8
  %17 = call i32 (i8*, ...) @__isoc99_scanf(i8* getelementptr inbounds ([3 x i8], [3 x i8]* @.str.1, i64 0, i64 0), i32* %15)
  br label %18

18:                                               ; preds = %14
  %19 = load i32, i32* %5, align 4
  %20 = add nsw i32 %19, 1
  store i32 %20, i32* %5, align 4
  br label %10

21:                                               ; preds = %10
  %22 = getelementptr inbounds [100 x i32], [100 x i32]* %1, i64 0, i64 0
  store i32* %22, i32** %7, align 8
  store i32 0, i32* %5, align 4
  br label %23

23:                                               ; preds = %57, %21
  %24 = load i32, i32* %5, align 4
  %25 = load i32, i32* %3, align 4
  %26 = icmp slt i32 %24, %25
  br i1 %26, label %27, label %60

27:                                               ; preds = %23
  %28 = load i32*, i32** %7, align 8
  %29 = load i32, i32* %2, align 4
  %30 = sub nsw i32 %29, 1
  %31 = sext i32 %30 to i64
  %32 = getelementptr inbounds i32, i32* %28, i64 %31
  %33 = load i32, i32* %32, align 4
  store i32 %33, i32* %4, align 4
  %34 = load i32, i32* %2, align 4
  %35 = sub nsw i32 %34, 1
  store i32 %35, i32* %6, align 4
  br label %36

36:                                               ; preds = %50, %27
  %37 = load i32, i32* %6, align 4
  %38 = icmp sgt i32 %37, 0
  br i1 %38, label %39, label %53

39:                                               ; preds = %36
  %40 = load i32*, i32** %7, align 8
  %41 = load i32, i32* %6, align 4
  %42 = sub nsw i32 %41, 1
  %43 = sext i32 %42 to i64
  %44 = getelementptr inbounds i32, i32* %40, i64 %43
  %45 = load i32, i32* %44, align 4
  %46 = load i32*, i32** %7, align 8
  %47 = load i32, i32* %6, align 4
  %48 = sext i32 %47 to i64
  %49 = getelementptr inbounds i32, i32* %46, i64 %48
  store i32 %45, i32* %49, align 4
  br label %50

50:                                               ; preds = %39
  %51 = load i32, i32* %6, align 4
  %52 = add nsw i32 %51, -1
  store i32 %52, i32* %6, align 4
  br label %36

53:                                               ; preds = %36
  %54 = load i32, i32* %4, align 4
  %55 = load i32*, i32** %7, align 8
  %56 = getelementptr inbounds i32, i32* %55, i64 0
  store i32 %54, i32* %56, align 4
  br label %57

57:                                               ; preds = %53
  %58 = load i32, i32* %5, align 4
  %59 = add nsw i32 %58, 1
  store i32 %59, i32* %5, align 4
  br label %23

60:                                               ; preds = %23
  %61 = getelementptr inbounds [100 x i32], [100 x i32]* %1, i64 0, i64 0
  store i32* %61, i32** %7, align 8
  store i32 0, i32* %5, align 4
  br label %62

62:                                               ; preds = %71, %60
  %63 = load i32, i32* %5, align 4
  %64 = load i32, i32* %2, align 4
  %65 = sub nsw i32 %64, 1
  %66 = icmp slt i32 %63, %65
  br i1 %66, label %67, label %76

67:                                               ; preds = %62
  %68 = load i32*, i32** %7, align 8
  %69 = load i32, i32* %68, align 4
  %70 = call i32 (i8*, ...) @printf(i8* getelementptr inbounds ([4 x i8], [4 x i8]* @.str.2, i64 0, i64 0), i32 %69)
  br label %71

71:                                               ; preds = %67
  %72 = load i32, i32* %5, align 4
  %73 = add nsw i32 %72, 1
  store i32 %73, i32* %5, align 4
  %74 = load i32*, i32** %7, align 8
  %75 = getelementptr inbounds i32, i32* %74, i32 1
  store i32* %75, i32** %7, align 8
  br label %62

76:                                               ; preds = %62
  %77 = load i32*, i32** %7, align 8
  %78 = load i32, i32* %77, align 4
  %79 = call i32 (i8*, ...) @printf(i8* getelementptr inbounds ([3 x i8], [3 x i8]* @.str.1, i64 0, i64 0), i32 %78)
  ret void
}

declare dso_local i32 @__isoc99_scanf(i8*, ...) #1

declare dso_local i32 @printf(i8*, ...) #1


!llvm.module.flags = !{!0}
!llvm.ident = !{!1}

!0 = !{i32 1, !"wchar_size", i32 4}
!1 = !{!"clang version 10.0.0-4ubuntu1 "}
